
tiny_manna:     file format elf64-x86-64


Disassembly of section .init:

0000000000000d18 <_init>:
 d18:	48 83 ec 08          	sub    $0x8,%rsp
 d1c:	48 8b 05 c5 12 20 00 	mov    0x2012c5(%rip),%rax        # 201fe8 <__gmon_start__>
 d23:	48 85 c0             	test   %rax,%rax
 d26:	74 02                	je     d2a <_init+0x12>
 d28:	ff d0                	callq  *%rax
 d2a:	48 83 c4 08          	add    $0x8,%rsp
 d2e:	c3                   	retq   

Disassembly of section .plt:

0000000000000d30 <.plt>:
 d30:	ff 35 d2 12 20 00    	pushq  0x2012d2(%rip)        # 202008 <_GLOBAL_OFFSET_TABLE_+0x8>
 d36:	ff 25 d4 12 20 00    	jmpq   *0x2012d4(%rip)        # 202010 <_GLOBAL_OFFSET_TABLE_+0x10>
 d3c:	0f 1f 40 00          	nopl   0x0(%rax)

0000000000000d40 <_ZNSt8ios_base15sync_with_stdioEb@plt>:
 d40:	ff 25 d2 12 20 00    	jmpq   *0x2012d2(%rip)        # 202018 <_ZNSt8ios_base15sync_with_stdioEb@GLIBCXX_3.4>
 d46:	68 00 00 00 00       	pushq  $0x0
 d4b:	e9 e0 ff ff ff       	jmpq   d30 <.plt>

0000000000000d50 <memset@plt>:
 d50:	ff 25 ca 12 20 00    	jmpq   *0x2012ca(%rip)        # 202020 <memset@GLIBC_2.2.5>
 d56:	68 01 00 00 00       	pushq  $0x1
 d5b:	e9 d0 ff ff ff       	jmpq   d30 <.plt>

0000000000000d60 <_ZNSo5flushEv@plt>:
 d60:	ff 25 c2 12 20 00    	jmpq   *0x2012c2(%rip)        # 202028 <_ZNSo5flushEv@GLIBCXX_3.4>
 d66:	68 02 00 00 00       	pushq  $0x2
 d6b:	e9 c0 ff ff ff       	jmpq   d30 <.plt>

0000000000000d70 <aligned_alloc@plt>:
 d70:	ff 25 ba 12 20 00    	jmpq   *0x2012ba(%rip)        # 202030 <aligned_alloc@GLIBC_2.16>
 d76:	68 03 00 00 00       	pushq  $0x3
 d7b:	e9 b0 ff ff ff       	jmpq   d30 <.plt>

0000000000000d80 <__cxa_atexit@plt>:
 d80:	ff 25 b2 12 20 00    	jmpq   *0x2012b2(%rip)        # 202038 <__cxa_atexit@GLIBC_2.2.5>
 d86:	68 04 00 00 00       	pushq  $0x4
 d8b:	e9 a0 ff ff ff       	jmpq   d30 <.plt>

0000000000000d90 <time@plt>:
 d90:	ff 25 aa 12 20 00    	jmpq   *0x2012aa(%rip)        # 202040 <time@GLIBC_2.2.5>
 d96:	68 05 00 00 00       	pushq  $0x5
 d9b:	e9 90 ff ff ff       	jmpq   d30 <.plt>

0000000000000da0 <_ZNSt13random_device7_M_finiEv@plt>:
 da0:	ff 25 a2 12 20 00    	jmpq   *0x2012a2(%rip)        # 202048 <_ZNSt13random_device7_M_finiEv@GLIBCXX_3.4.18>
 da6:	68 06 00 00 00       	pushq  $0x6
 dab:	e9 80 ff ff ff       	jmpq   d30 <.plt>

0000000000000db0 <_ZdlPv@plt>:
 db0:	ff 25 9a 12 20 00    	jmpq   *0x20129a(%rip)        # 202050 <_ZdlPv@GLIBCXX_3.4>
 db6:	68 07 00 00 00       	pushq  $0x7
 dbb:	e9 70 ff ff ff       	jmpq   d30 <.plt>

0000000000000dc0 <srand@plt>:
 dc0:	ff 25 92 12 20 00    	jmpq   *0x201292(%rip)        # 202058 <srand@GLIBC_2.2.5>
 dc6:	68 08 00 00 00       	pushq  $0x8
 dcb:	e9 60 ff ff ff       	jmpq   d30 <.plt>

0000000000000dd0 <_ZStlsISt11char_traitsIcEERSt13basic_ostreamIcT_ES5_PKc@plt>:
 dd0:	ff 25 8a 12 20 00    	jmpq   *0x20128a(%rip)        # 202060 <_ZStlsISt11char_traitsIcEERSt13basic_ostreamIcT_ES5_PKc@GLIBCXX_3.4>
 dd6:	68 09 00 00 00       	pushq  $0x9
 ddb:	e9 50 ff ff ff       	jmpq   d30 <.plt>

0000000000000de0 <_Znwm@plt>:
 de0:	ff 25 82 12 20 00    	jmpq   *0x201282(%rip)        # 202068 <_Znwm@GLIBCXX_3.4>
 de6:	68 0a 00 00 00       	pushq  $0xa
 deb:	e9 40 ff ff ff       	jmpq   d30 <.plt>

0000000000000df0 <_ZNSt14basic_ofstreamIcSt11char_traitsIcEEC1EPKcSt13_Ios_Openmode@plt>:
 df0:	ff 25 7a 12 20 00    	jmpq   *0x20127a(%rip)        # 202070 <_ZNSt14basic_ofstreamIcSt11char_traitsIcEEC1EPKcSt13_Ios_Openmode@GLIBCXX_3.4>
 df6:	68 0b 00 00 00       	pushq  $0xb
 dfb:	e9 30 ff ff ff       	jmpq   d30 <.plt>

0000000000000e00 <_ZSt16__ostream_insertIcSt11char_traitsIcEERSt13basic_ostreamIT_T0_ES6_PKS3_l@plt>:
 e00:	ff 25 72 12 20 00    	jmpq   *0x201272(%rip)        # 202078 <_ZSt16__ostream_insertIcSt11char_traitsIcEERSt13basic_ostreamIT_T0_ES6_PKS3_l@GLIBCXX_3.4.9>
 e06:	68 0c 00 00 00       	pushq  $0xc
 e0b:	e9 20 ff ff ff       	jmpq   d30 <.plt>

0000000000000e10 <_ZNSt13random_device9_M_getvalEv@plt>:
 e10:	ff 25 6a 12 20 00    	jmpq   *0x20126a(%rip)        # 202080 <_ZNSt13random_device9_M_getvalEv@GLIBCXX_3.4.18>
 e16:	68 0d 00 00 00       	pushq  $0xd
 e1b:	e9 10 ff ff ff       	jmpq   d30 <.plt>

0000000000000e20 <_ZNSt14basic_ofstreamIcSt11char_traitsIcEED1Ev@plt>:
 e20:	ff 25 62 12 20 00    	jmpq   *0x201262(%rip)        # 202088 <_ZNSt14basic_ofstreamIcSt11char_traitsIcEED1Ev@GLIBCXX_3.4>
 e26:	68 0e 00 00 00       	pushq  $0xe
 e2b:	e9 00 ff ff ff       	jmpq   d30 <.plt>

0000000000000e30 <_ZNSt8ios_base4InitC1Ev@plt>:
 e30:	ff 25 5a 12 20 00    	jmpq   *0x20125a(%rip)        # 202090 <_ZNSt8ios_base4InitC1Ev@GLIBCXX_3.4>
 e36:	68 0f 00 00 00       	pushq  $0xf
 e3b:	e9 f0 fe ff ff       	jmpq   d30 <.plt>

0000000000000e40 <memmove@plt>:
 e40:	ff 25 52 12 20 00    	jmpq   *0x201252(%rip)        # 202098 <memmove@GLIBC_2.2.5>
 e46:	68 10 00 00 00       	pushq  $0x10
 e4b:	e9 e0 fe ff ff       	jmpq   d30 <.plt>

0000000000000e50 <_ZNSt13random_device7_M_initERKNSt7__cxx1112basic_stringIcSt11char_traitsIcESaIcEEE@plt>:
 e50:	ff 25 4a 12 20 00    	jmpq   *0x20124a(%rip)        # 2020a0 <_ZNSt13random_device7_M_initERKNSt7__cxx1112basic_stringIcSt11char_traitsIcESaIcEEE@GLIBCXX_3.4.21>
 e56:	68 11 00 00 00       	pushq  $0x11
 e5b:	e9 d0 fe ff ff       	jmpq   d30 <.plt>

0000000000000e60 <_ZNSolsEi@plt>:
 e60:	ff 25 42 12 20 00    	jmpq   *0x201242(%rip)        # 2020a8 <_ZNSolsEi@GLIBCXX_3.4>
 e66:	68 12 00 00 00       	pushq  $0x12
 e6b:	e9 c0 fe ff ff       	jmpq   d30 <.plt>

0000000000000e70 <_Unwind_Resume@plt>:
 e70:	ff 25 3a 12 20 00    	jmpq   *0x20123a(%rip)        # 2020b0 <_Unwind_Resume@GCC_3.0>
 e76:	68 13 00 00 00       	pushq  $0x13
 e7b:	e9 b0 fe ff ff       	jmpq   d30 <.plt>

Disassembly of section .plt.got:

0000000000000e80 <__cxa_finalize@plt>:
 e80:	ff 25 4a 11 20 00    	jmpq   *0x20114a(%rip)        # 201fd0 <__cxa_finalize@GLIBC_2.2.5>
 e86:	66 90                	xchg   %ax,%ax

Disassembly of section .text:

0000000000000e90 <_GLOBAL__sub_I__Z8randinitv>:
     e90:	48 83 ec 08          	sub    $0x8,%rsp
     e94:	48 8d 3d 85 14 20 00 	lea    0x201485(%rip),%rdi        # 202320 <_ZStL8__ioinit>
     e9b:	e8 90 ff ff ff       	callq  e30 <_ZNSt8ios_base4InitC1Ev@plt>
     ea0:	48 8b 3d 51 11 20 00 	mov    0x201151(%rip),%rdi        # 201ff8 <_ZNSt8ios_base4InitD1Ev@GLIBCXX_3.4>
     ea7:	48 8d 15 12 12 20 00 	lea    0x201212(%rip),%rdx        # 2020c0 <__dso_handle>
     eae:	48 8d 35 6b 14 20 00 	lea    0x20146b(%rip),%rsi        # 202320 <_ZStL8__ioinit>
     eb5:	e8 c6 fe ff ff       	callq  d80 <__cxa_atexit@plt>
     eba:	48 c7 05 63 14 20 00 	movq   $0x1,0x201463(%rip)        # 202328 <_ZL9generator>
     ec1:	01 00 00 00 
     ec5:	48 83 c4 08          	add    $0x8,%rsp
     ec9:	c3                   	retq   
     eca:	66 0f 1f 44 00 00    	nopw   0x0(%rax,%rax,1)

0000000000000ed0 <main>:
     ed0:	55                   	push   %rbp
     ed1:	31 ff                	xor    %edi,%edi
     ed3:	48 89 e5             	mov    %rsp,%rbp
     ed6:	41 57                	push   %r15
     ed8:	41 56                	push   %r14
     eda:	41 55                	push   %r13
     edc:	41 54                	push   %r12
     ede:	53                   	push   %rbx
     edf:	48 83 e4 e0          	and    $0xffffffffffffffe0,%rsp
     ee3:	48 81 ec e0 13 00 00 	sub    $0x13e0,%rsp
     eea:	e8 51 fe ff ff       	callq  d40 <_ZNSt8ios_base15sync_with_stdioEb@plt>
     eef:	48 8d 5c 24 30       	lea    0x30(%rsp),%rbx
     ef4:	c7 44 24 40 64 65 66 	movl   $0x61666564,0x40(%rsp)
     efb:	61 
     efc:	48 8d 43 10          	lea    0x10(%rbx),%rax
     f00:	c6 43 16 74          	movb   $0x74,0x16(%rbx)
     f04:	48 89 de             	mov    %rbx,%rsi
     f07:	48 89 44 24 30       	mov    %rax,0x30(%rsp)
     f0c:	b8 75 6c 00 00       	mov    $0x6c75,%eax
     f11:	66 89 43 14          	mov    %ax,0x14(%rbx)
     f15:	48 8d 44 24 50       	lea    0x50(%rsp),%rax
     f1a:	48 89 c7             	mov    %rax,%rdi
     f1d:	c6 44 24 47 00       	movb   $0x0,0x47(%rsp)
     f22:	48 c7 05 bb 13 20 00 	movq   $0x0,0x2013bb(%rip)        # 2022e8 <_ZSt3cin@@GLIBCXX_3.4+0xe8>
     f29:	00 00 00 00 
     f2d:	48 c7 44 24 38 07 00 	movq   $0x7,0x38(%rsp)
     f34:	00 00 
     f36:	48 89 44 24 18       	mov    %rax,0x18(%rsp)
     f3b:	e8 10 ff ff ff       	callq  e50 <_ZNSt13random_device7_M_initERKNSt7__cxx1112basic_stringIcSt11char_traitsIcESaIcEEE@plt>
     f40:	48 8b 7c 24 30       	mov    0x30(%rsp),%rdi
     f45:	48 83 c3 10          	add    $0x10,%rbx
     f49:	48 39 df             	cmp    %rbx,%rdi
     f4c:	74 05                	je     f53 <main+0x83>
     f4e:	e8 5d fe ff ff       	callq  db0 <_ZdlPv@plt>
     f53:	48 8b 5c 24 18       	mov    0x18(%rsp),%rbx
     f58:	48 89 df             	mov    %rbx,%rdi
     f5b:	e8 b0 fe ff ff       	callq  e10 <_ZNSt13random_device9_M_getvalEv@plt>
     f60:	48 ba 05 00 00 00 02 	movabs $0x200000005,%rdx
     f67:	00 00 00 
     f6a:	89 c1                	mov    %eax,%ecx
     f6c:	48 89 c8             	mov    %rcx,%rax
     f6f:	48 f7 e2             	mul    %rdx
     f72:	48 89 c8             	mov    %rcx,%rax
     f75:	48 29 d0             	sub    %rdx,%rax
     f78:	48 d1 e8             	shr    %rax
     f7b:	48 01 d0             	add    %rdx,%rax
     f7e:	48 c1 e8 1e          	shr    $0x1e,%rax
     f82:	48 89 c2             	mov    %rax,%rdx
     f85:	48 c1 e2 1f          	shl    $0x1f,%rdx
     f89:	48 29 c2             	sub    %rax,%rdx
     f8c:	48 29 d1             	sub    %rdx,%rcx
     f8f:	ba 01 00 00 00       	mov    $0x1,%edx
     f94:	48 89 c8             	mov    %rcx,%rax
     f97:	48 0f 44 c2          	cmove  %rdx,%rax
     f9b:	31 ff                	xor    %edi,%edi
     f9d:	48 89 05 84 13 20 00 	mov    %rax,0x201384(%rip)        # 202328 <_ZL9generator>
     fa4:	e8 e7 fd ff ff       	callq  d90 <time@plt>
     fa9:	89 c7                	mov    %eax,%edi
     fab:	e8 10 fe ff ff       	callq  dc0 <srand@plt>
     fb0:	48 89 df             	mov    %rbx,%rdi
     fb3:	e8 e8 fd ff ff       	callq  da0 <_ZNSt13random_device7_M_finiEv@plt>
     fb8:	be 00 00 40 00       	mov    $0x400000,%esi
     fbd:	bf 80 00 00 00       	mov    $0x80,%edi
     fc2:	e8 a9 fd ff ff       	callq  d70 <aligned_alloc@plt>
     fc7:	be 00 00 40 00       	mov    $0x400000,%esi
     fcc:	bf 80 00 00 00       	mov    $0x80,%edi
     fd1:	48 89 c3             	mov    %rax,%rbx
     fd4:	e8 97 fd ff ff       	callq  d70 <aligned_alloc@plt>
     fd9:	48 8d 35 58 09 00 00 	lea    0x958(%rip),%rsi        # 1938 <_IO_stdin_used+0x58>
     fe0:	48 8d 3d f9 10 20 00 	lea    0x2010f9(%rip),%rdi        # 2020e0 <_ZSt4cout@@GLIBCXX_3.4>
     fe7:	49 89 c5             	mov    %rax,%r13
     fea:	e8 e1 fd ff ff       	callq  dd0 <_ZStlsISt11char_traitsIcEERSt13basic_ostreamIcT_ES5_PKc@plt>
     fef:	c5 fd 6f 15 e9 09 00 	vmovdqa 0x9e9(%rip),%ymm2        # 19e0 <_IO_stdin_used+0x100>
     ff6:	00 
     ff7:	c5 fd 6f 25 01 0a 00 	vmovdqa 0xa01(%rip),%ymm4        # 1a00 <_IO_stdin_used+0x120>
     ffe:	00 
     fff:	48 89 d8             	mov    %rbx,%rax
    1002:	c5 fd 28 1d 36 0a 00 	vmovapd 0xa36(%rip),%ymm3        # 1a40 <_IO_stdin_used+0x160>
    1009:	00 
    100a:	48 8d 93 00 00 40 00 	lea    0x400000(%rbx),%rdx
    1011:	0f 1f 44 00 00       	nopl   0x0(%rax,%rax,1)
    1016:	66 2e 0f 1f 84 00 00 	nopw   %cs:0x0(%rax,%rax,1)
    101d:	00 00 00 
    1020:	c5 ed fe 05 f8 09 00 	vpaddd 0x9f8(%rip),%ymm2,%ymm0        # 1a20 <_IO_stdin_used+0x140>
    1027:	00 
    1028:	c4 e3 7d 39 d5 01    	vextracti128 $0x1,%ymm2,%xmm5
    102e:	48 83 c0 20          	add    $0x20,%rax
    1032:	c5 fe e6 ed          	vcvtdq2pd %xmm5,%ymm5
    1036:	c5 d5 59 eb          	vmulpd %ymm3,%ymm5,%ymm5
    103a:	c5 fe e6 c8          	vcvtdq2pd %xmm0,%ymm1
    103e:	c5 f5 59 cb          	vmulpd %ymm3,%ymm1,%ymm1
    1042:	c4 e3 7d 39 c0 01    	vextracti128 $0x1,%ymm0,%xmm0
    1048:	c5 fe e6 c0          	vcvtdq2pd %xmm0,%ymm0
    104c:	c5 fd 59 c3          	vmulpd %ymm3,%ymm0,%ymm0
    1050:	c5 fd e6 ed          	vcvttpd2dq %ymm5,%xmm5
    1054:	c5 fd e6 c9          	vcvttpd2dq %ymm1,%xmm1
    1058:	c5 fd e6 c0          	vcvttpd2dq %ymm0,%xmm0
    105c:	c4 e3 75 38 c0 01    	vinserti128 $0x1,%xmm0,%ymm1,%ymm0
    1062:	c5 fe e6 ca          	vcvtdq2pd %xmm2,%ymm1
    1066:	c5 ed fe d4          	vpaddd %ymm4,%ymm2,%ymm2
    106a:	c5 f5 59 cb          	vmulpd %ymm3,%ymm1,%ymm1
    106e:	c5 fd e6 c9          	vcvttpd2dq %ymm1,%xmm1
    1072:	c4 e3 75 38 cd 01    	vinserti128 $0x1,%xmm5,%ymm1,%ymm1
    1078:	c5 fd fa c1          	vpsubd %ymm1,%ymm0,%ymm0
    107c:	c5 fe 7f 40 e0       	vmovdqu %ymm0,-0x20(%rax)
    1081:	48 39 d0             	cmp    %rdx,%rax
    1084:	75 9a                	jne    1020 <main+0x150>
    1086:	48 8d 35 89 08 00 00 	lea    0x889(%rip),%rsi        # 1916 <_IO_stdin_used+0x36>
    108d:	48 8d 3d 4c 10 20 00 	lea    0x20104c(%rip),%rdi        # 2020e0 <_ZSt4cout@@GLIBCXX_3.4>
    1094:	c5 f8 77             	vzeroupper 
    1097:	e8 34 fd ff ff       	callq  dd0 <_ZStlsISt11char_traitsIcEERSt13basic_ostreamIcT_ES5_PKc@plt>
    109c:	45 31 e4             	xor    %r12d,%r12d
    109f:	45 31 f6             	xor    %r14d,%r14d
    10a2:	48 8d 35 bf 08 00 00 	lea    0x8bf(%rip),%rsi        # 1968 <_IO_stdin_used+0x88>
    10a9:	48 8d 3d 30 10 20 00 	lea    0x201030(%rip),%rdi        # 2020e0 <_ZSt4cout@@GLIBCXX_3.4>
    10b0:	49 bf 05 00 00 00 02 	movabs $0x200000005,%r15
    10b7:	00 00 00 
    10ba:	e8 11 fd ff ff       	callq  dd0 <_ZStlsISt11char_traitsIcEERSt13basic_ostreamIcT_ES5_PKc@plt>
    10bf:	31 c9                	xor    %ecx,%ecx
    10c1:	48 c7 44 24 20 00 00 	movq   $0x0,0x20(%rsp)
    10c8:	00 00 
    10ca:	eb 14                	jmp    10e0 <main+0x210>
    10cc:	0f 1f 40 00          	nopl   0x0(%rax)
    10d0:	49 ff c4             	inc    %r12
    10d3:	49 81 fc 00 00 10 00 	cmp    $0x100000,%r12
    10da:	0f 84 a7 00 00 00    	je     1187 <main+0x2b7>
    10e0:	42 83 3c a3 01       	cmpl   $0x1,(%rbx,%r12,4)
    10e5:	44 89 e7             	mov    %r12d,%edi
    10e8:	75 e6                	jne    10d0 <main+0x200>
    10ea:	42 c7 04 a3 00 00 00 	movl   $0x0,(%rbx,%r12,4)
    10f1:	00 
    10f2:	48 8b 15 2f 12 20 00 	mov    0x20122f(%rip),%rdx        # 202328 <_ZL9generator>
    10f9:	0f 1f 80 00 00 00 00 	nopl   0x0(%rax)
    1100:	48 69 f2 a7 41 00 00 	imul   $0x41a7,%rdx,%rsi
    1107:	48 89 f0             	mov    %rsi,%rax
    110a:	49 f7 e7             	mul    %r15
    110d:	48 89 f0             	mov    %rsi,%rax
    1110:	48 29 d0             	sub    %rdx,%rax
    1113:	48 d1 e8             	shr    %rax
    1116:	48 01 c2             	add    %rax,%rdx
    1119:	48 c1 ea 1e          	shr    $0x1e,%rdx
    111d:	48 89 d0             	mov    %rdx,%rax
    1120:	48 c1 e0 1f          	shl    $0x1f,%rax
    1124:	48 29 d0             	sub    %rdx,%rax
    1127:	48 29 c6             	sub    %rax,%rsi
    112a:	48 8d 46 ff          	lea    -0x1(%rsi),%rax
    112e:	48 89 f2             	mov    %rsi,%rdx
    1131:	48 3d fb ff ff 7f    	cmp    $0x7ffffffb,%rax
    1137:	77 c7                	ja     1100 <main+0x230>
    1139:	48 d1 e8             	shr    %rax
    113c:	48 89 35 e5 11 20 00 	mov    %rsi,0x2011e5(%rip)        # 202328 <_ZL9generator>
    1143:	48 89 c2             	mov    %rax,%rdx
    1146:	48 b8 21 00 00 00 04 	movabs $0x8000000400000021,%rax
    114d:	00 00 80 
    1150:	48 f7 e2             	mul    %rdx
    1153:	48 c1 ea 1c          	shr    $0x1c,%rdx
    1157:	8d 84 57 ff ff 0f 00 	lea    0xfffff(%rdi,%rdx,2),%eax
    115e:	25 ff ff 0f 00       	and    $0xfffff,%eax
    1163:	89 44 24 28          	mov    %eax,0x28(%rsp)
    1167:	4c 39 f1             	cmp    %r14,%rcx
    116a:	0f 84 a0 02 00 00    	je     1410 <main+0x540>
    1170:	49 ff c4             	inc    %r12
    1173:	41 89 06             	mov    %eax,(%r14)
    1176:	49 83 c6 04          	add    $0x4,%r14
    117a:	49 81 fc 00 00 10 00 	cmp    $0x100000,%r12
    1181:	0f 85 59 ff ff ff    	jne    10e0 <main+0x210>
    1187:	4c 2b 74 24 20       	sub    0x20(%rsp),%r14
    118c:	31 d2                	xor    %edx,%edx
    118e:	31 c0                	xor    %eax,%eax
    1190:	48 8b 4c 24 20       	mov    0x20(%rsp),%rcx
    1195:	49 c1 fe 02          	sar    $0x2,%r14
    1199:	74 17                	je     11b2 <main+0x2e2>
    119b:	0f 1f 44 00 00       	nopl   0x0(%rax,%rax,1)
    11a0:	48 63 14 91          	movslq (%rcx,%rdx,4),%rdx
    11a4:	ff 04 93             	incl   (%rbx,%rdx,4)
    11a7:	8d 50 01             	lea    0x1(%rax),%edx
    11aa:	48 89 d0             	mov    %rdx,%rax
    11ad:	4c 39 f2             	cmp    %r14,%rdx
    11b0:	72 ee                	jb     11a0 <main+0x2d0>
    11b2:	48 83 7c 24 20 00    	cmpq   $0x0,0x20(%rsp)
    11b8:	74 0a                	je     11c4 <main+0x2f4>
    11ba:	48 8b 7c 24 20       	mov    0x20(%rsp),%rdi
    11bf:	e8 ec fb ff ff       	callq  db0 <_ZdlPv@plt>
    11c4:	48 8d 35 4b 07 00 00 	lea    0x74b(%rip),%rsi        # 1916 <_IO_stdin_used+0x36>
    11cb:	48 8d 3d 0e 0f 20 00 	lea    0x200f0e(%rip),%rdi        # 2020e0 <_ZSt4cout@@GLIBCXX_3.4>
    11d2:	49 bc 21 00 00 00 04 	movabs $0x8000000400000021,%r12
    11d9:	00 00 80 
    11dc:	e8 ef fb ff ff       	callq  dd0 <_ZStlsISt11char_traitsIcEERSt13basic_ostreamIcT_ES5_PKc@plt>
    11e1:	48 8d 35 b8 07 00 00 	lea    0x7b8(%rip),%rsi        # 19a0 <_IO_stdin_used+0xc0>
    11e8:	48 8d 3d f1 0e 20 00 	lea    0x200ef1(%rip),%rdi        # 2020e0 <_ZSt4cout@@GLIBCXX_3.4>
    11ef:	e8 dc fb ff ff       	callq  dd0 <_ZStlsISt11char_traitsIcEERSt13basic_ostreamIcT_ES5_PKc@plt>
    11f4:	48 8d 3d e5 0e 20 00 	lea    0x200ee5(%rip),%rdi        # 2020e0 <_ZSt4cout@@GLIBCXX_3.4>
    11fb:	e8 60 fb ff ff       	callq  d60 <_ZNSo5flushEv@plt>
    1200:	48 8b 7c 24 18       	mov    0x18(%rsp),%rdi
    1205:	ba 10 00 00 00       	mov    $0x10,%edx
    120a:	48 8d 35 0c 07 00 00 	lea    0x70c(%rip),%rsi        # 191d <_IO_stdin_used+0x3d>
    1211:	e8 da fb ff ff       	callq  df0 <_ZNSt14basic_ofstreamIcSt11char_traitsIcEEC1EPKcSt13_Ios_Openmode@plt>
    1216:	c7 44 24 28 00 00 00 	movl   $0x0,0x28(%rsp)
    121d:	00 
    121e:	66 90                	xchg   %ax,%ax
    1220:	c7 03 56 34 12 00    	movl   $0x123456,(%rbx)
    1226:	31 f6                	xor    %esi,%esi
    1228:	ba 00 00 40 00       	mov    $0x400000,%edx
    122d:	4c 89 ef             	mov    %r13,%rdi
    1230:	e8 1b fb ff ff       	callq  d50 <memset@plt>
    1235:	be 01 00 00 00       	mov    $0x1,%esi
    123a:	eb 14                	jmp    1250 <main+0x380>
    123c:	0f 1f 40 00          	nopl   0x0(%rax)
    1240:	48 ff c6             	inc    %rsi
    1243:	48 81 fe 01 00 10 00 	cmp    $0x100001,%rsi
    124a:	0f 84 c3 00 00 00    	je     1313 <main+0x443>
    1250:	44 8b 44 b3 fc       	mov    -0x4(%rbx,%rsi,4),%r8d
    1255:	89 f7                	mov    %esi,%edi
    1257:	41 89 f2             	mov    %esi,%r10d
    125a:	41 83 f8 01          	cmp    $0x1,%r8d
    125e:	7e e0                	jle    1240 <main+0x370>
    1260:	48 8b 0d c1 10 20 00 	mov    0x2010c1(%rip),%rcx        # 202328 <_ZL9generator>
    1267:	4c 8d 35 ba 10 20 00 	lea    0x2010ba(%rip),%r14        # 202328 <_ZL9generator>
    126e:	45 31 c9             	xor    %r9d,%r9d
    1271:	45 31 db             	xor    %r11d,%r11d
    1274:	66 90                	xchg   %ax,%ax
    1276:	66 2e 0f 1f 84 00 00 	nopw   %cs:0x0(%rax,%rax,1)
    127d:	00 00 00 
    1280:	4c 69 f9 a7 41 00 00 	imul   $0x41a7,%rcx,%r15
    1287:	48 b8 05 00 00 00 02 	movabs $0x200000005,%rax
    128e:	00 00 00 
    1291:	49 f7 e7             	mul    %r15
    1294:	4c 89 f9             	mov    %r15,%rcx
    1297:	48 29 d1             	sub    %rdx,%rcx
    129a:	48 d1 e9             	shr    %rcx
    129d:	48 01 ca             	add    %rcx,%rdx
    12a0:	48 89 d1             	mov    %rdx,%rcx
    12a3:	48 c1 e9 1e          	shr    $0x1e,%rcx
    12a7:	48 89 c8             	mov    %rcx,%rax
    12aa:	48 c1 e0 1f          	shl    $0x1f,%rax
    12ae:	48 29 c8             	sub    %rcx,%rax
    12b1:	4c 89 f9             	mov    %r15,%rcx
    12b4:	48 29 c1             	sub    %rax,%rcx
    12b7:	48 8d 41 ff          	lea    -0x1(%rcx),%rax
    12bb:	48 3d fb ff ff 7f    	cmp    $0x7ffffffb,%rax
    12c1:	77 bd                	ja     1280 <main+0x3b0>
    12c3:	48 d1 e8             	shr    %rax
    12c6:	41 ff c3             	inc    %r11d
    12c9:	49 89 0e             	mov    %rcx,(%r14)
    12cc:	49 f7 e4             	mul    %r12
    12cf:	48 c1 ea 1c          	shr    $0x1c,%rdx
    12d3:	41 01 d1             	add    %edx,%r9d
    12d6:	45 39 d8             	cmp    %r11d,%r8d
    12d9:	75 a5                	jne    1280 <main+0x3b0>
    12db:	81 c7 fe ff 0f 00    	add    $0xffffe,%edi
    12e1:	41 81 e2 ff ff 0f 00 	and    $0xfffff,%r10d
    12e8:	c7 44 b3 fc 00 00 00 	movl   $0x0,-0x4(%rbx,%rsi,4)
    12ef:	00 
    12f0:	48 ff c6             	inc    %rsi
    12f3:	81 e7 ff ff 0f 00    	and    $0xfffff,%edi
    12f9:	47 01 4c 95 00       	add    %r9d,0x0(%r13,%r10,4)
    12fe:	45 29 c8             	sub    %r9d,%r8d
    1301:	45 01 44 bd 00       	add    %r8d,0x0(%r13,%rdi,4)
    1306:	48 81 fe 01 00 10 00 	cmp    $0x100001,%rsi
    130d:	0f 85 3d ff ff ff    	jne    1250 <main+0x380>
    1313:	c7 03 77 77 00 00    	movl   $0x7777,(%rbx)
    1319:	31 c0                	xor    %eax,%eax
    131b:	c5 f1 ef c9          	vpxor  %xmm1,%xmm1,%xmm1
    131f:	90                   	nop
    1320:	c4 c1 7d 6f 74 05 00 	vmovdqa 0x0(%r13,%rax,1),%ymm6
    1327:	c5 cd fe 04 03       	vpaddd (%rbx,%rax,1),%ymm6,%ymm0
    132c:	c5 fd 7f 04 03       	vmovdqa %ymm0,(%rbx,%rax,1)
    1331:	48 83 c0 20          	add    $0x20,%rax
    1335:	c5 fd 66 05 e3 06 00 	vpcmpgtd 0x6e3(%rip),%ymm0,%ymm0        # 1a20 <_IO_stdin_used+0x140>
    133c:	00 
    133d:	c5 f5 fa c8          	vpsubd %ymm0,%ymm1,%ymm1
    1341:	48 3d 00 00 40 00    	cmp    $0x400000,%rax
    1347:	75 d7                	jne    1320 <main+0x450>
    1349:	c4 e3 7d 39 c8 01    	vextracti128 $0x1,%ymm1,%xmm0
    134f:	48 8b 7c 24 18       	mov    0x18(%rsp),%rdi
    1354:	c5 f9 fe c9          	vpaddd %xmm1,%xmm0,%xmm1
    1358:	c5 f9 73 d9 08       	vpsrldq $0x8,%xmm1,%xmm0
    135d:	c5 f1 fe c8          	vpaddd %xmm0,%xmm1,%xmm1
    1361:	c5 f9 73 d9 04       	vpsrldq $0x4,%xmm1,%xmm0
    1366:	c5 f1 fe c8          	vpaddd %xmm0,%xmm1,%xmm1
    136a:	c4 c1 79 7e ce       	vmovd  %xmm1,%r14d
    136f:	c5 f9 7e ce          	vmovd  %xmm1,%esi
    1373:	c5 f8 77             	vzeroupper 
    1376:	e8 e5 fa ff ff       	callq  e60 <_ZNSolsEi@plt>
    137b:	ba 01 00 00 00       	mov    $0x1,%edx
    1380:	48 8d 35 70 05 00 00 	lea    0x570(%rip),%rsi        # 18f7 <_IO_stdin_used+0x17>
    1387:	48 89 c7             	mov    %rax,%rdi
    138a:	e8 71 fa ff ff       	callq  e00 <_ZSt16__ostream_insertIcSt11char_traitsIcEERSt13basic_ostreamIT_T0_ES6_PKS3_l@plt>
    138f:	ff 44 24 28          	incl   0x28(%rsp)
    1393:	8b 44 24 28          	mov    0x28(%rsp),%eax
    1397:	45 85 f6             	test   %r14d,%r14d
    139a:	7e 0b                	jle    13a7 <main+0x4d7>
    139c:	3d 0f 27 00 00       	cmp    $0x270f,%eax
    13a1:	0f 8e 79 fe ff ff    	jle    1220 <main+0x350>
    13a7:	ba 07 00 00 00       	mov    $0x7,%edx
    13ac:	48 8d 35 77 05 00 00 	lea    0x577(%rip),%rsi        # 192a <_IO_stdin_used+0x4a>
    13b3:	48 8d 3d 26 0d 20 00 	lea    0x200d26(%rip),%rdi        # 2020e0 <_ZSt4cout@@GLIBCXX_3.4>
    13ba:	e8 41 fa ff ff       	callq  e00 <_ZSt16__ostream_insertIcSt11char_traitsIcEERSt13basic_ostreamIT_T0_ES6_PKS3_l@plt>
    13bf:	45 85 f6             	test   %r14d,%r14d
    13c2:	48 8d 35 1b 05 00 00 	lea    0x51b(%rip),%rsi        # 18e4 <_IO_stdin_used+0x4>
    13c9:	48 8d 05 29 05 00 00 	lea    0x529(%rip),%rax        # 18f9 <_IO_stdin_used+0x19>
    13d0:	48 0f 4e f0          	cmovle %rax,%rsi
    13d4:	48 8d 3d 05 0d 20 00 	lea    0x200d05(%rip),%rdi        # 2020e0 <_ZSt4cout@@GLIBCXX_3.4>
    13db:	e8 f0 f9 ff ff       	callq  dd0 <_ZStlsISt11char_traitsIcEERSt13basic_ostreamIcT_ES5_PKc@plt>
    13e0:	48 8d 3d f9 0c 20 00 	lea    0x200cf9(%rip),%rdi        # 2020e0 <_ZSt4cout@@GLIBCXX_3.4>
    13e7:	e8 74 f9 ff ff       	callq  d60 <_ZNSo5flushEv@plt>
    13ec:	48 8b 7c 24 18       	mov    0x18(%rsp),%rdi
    13f1:	e8 2a fa ff ff       	callq  e20 <_ZNSt14basic_ofstreamIcSt11char_traitsIcEED1Ev@plt>
    13f6:	48 8d 65 d8          	lea    -0x28(%rbp),%rsp
    13fa:	31 c0                	xor    %eax,%eax
    13fc:	5b                   	pop    %rbx
    13fd:	41 5c                	pop    %r12
    13ff:	41 5d                	pop    %r13
    1401:	41 5e                	pop    %r14
    1403:	41 5f                	pop    %r15
    1405:	5d                   	pop    %rbp
    1406:	c3                   	retq   
    1407:	66 0f 1f 84 00 00 00 	nopw   0x0(%rax,%rax,1)
    140e:	00 00 
    1410:	4c 89 f0             	mov    %r14,%rax
    1413:	48 2b 44 24 20       	sub    0x20(%rsp),%rax
    1418:	48 89 44 24 08       	mov    %rax,0x8(%rsp)
    141d:	48 c1 f8 02          	sar    $0x2,%rax
    1421:	0f 84 b9 00 00 00    	je     14e0 <main+0x610>
    1427:	48 c7 44 24 10 fc ff 	movq   $0xfffffffffffffffc,0x10(%rsp)
    142e:	ff ff 
    1430:	48 8d 14 00          	lea    (%rax,%rax,1),%rdx
    1434:	48 39 d0             	cmp    %rdx,%rax
    1437:	76 77                	jbe    14b0 <main+0x5e0>
    1439:	48 8b 7c 24 10       	mov    0x10(%rsp),%rdi
    143e:	e8 9d f9 ff ff       	callq  de0 <_Znwm@plt>
    1443:	48 8b 4c 24 10       	mov    0x10(%rsp),%rcx
    1448:	49 89 c0             	mov    %rax,%r8
    144b:	48 01 c1             	add    %rax,%rcx
    144e:	48 8b 44 24 08       	mov    0x8(%rsp),%rax
    1453:	8b 7c 24 28          	mov    0x28(%rsp),%edi
    1457:	48 8b 74 24 20       	mov    0x20(%rsp),%rsi
    145c:	41 89 3c 00          	mov    %edi,(%r8,%rax,1)
    1460:	4c 39 f6             	cmp    %r14,%rsi
    1463:	74 6b                	je     14d0 <main+0x600>
    1465:	4c 89 c7             	mov    %r8,%rdi
    1468:	48 89 c2             	mov    %rax,%rdx
    146b:	48 89 4c 24 28       	mov    %rcx,0x28(%rsp)
    1470:	49 89 c6             	mov    %rax,%r14
    1473:	e8 c8 f9 ff ff       	callq  e40 <memmove@plt>
    1478:	48 8b 4c 24 28       	mov    0x28(%rsp),%rcx
    147d:	49 89 c0             	mov    %rax,%r8
    1480:	4f 8d 74 30 04       	lea    0x4(%r8,%r14,1),%r14
    1485:	48 8b 7c 24 20       	mov    0x20(%rsp),%rdi
    148a:	48 89 4c 24 10       	mov    %rcx,0x10(%rsp)
    148f:	4c 89 44 24 28       	mov    %r8,0x28(%rsp)
    1494:	e8 17 f9 ff ff       	callq  db0 <_ZdlPv@plt>
    1499:	48 8b 4c 24 10       	mov    0x10(%rsp),%rcx
    149e:	4c 8b 44 24 28       	mov    0x28(%rsp),%r8
    14a3:	4c 89 44 24 20       	mov    %r8,0x20(%rsp)
    14a8:	e9 23 fc ff ff       	jmpq   10d0 <main+0x200>
    14ad:	0f 1f 00             	nopl   (%rax)
    14b0:	48 bf ff ff ff ff ff 	movabs $0x3fffffffffffffff,%rdi
    14b7:	ff ff 3f 
    14ba:	48 39 fa             	cmp    %rdi,%rdx
    14bd:	77 2f                	ja     14ee <main+0x61e>
    14bf:	48 85 d2             	test   %rdx,%rdx
    14c2:	75 38                	jne    14fc <main+0x62c>
    14c4:	31 c9                	xor    %ecx,%ecx
    14c6:	45 31 c0             	xor    %r8d,%r8d
    14c9:	eb 83                	jmp    144e <main+0x57e>
    14cb:	0f 1f 44 00 00       	nopl   0x0(%rax,%rax,1)
    14d0:	48 83 7c 24 20 00    	cmpq   $0x0,0x20(%rsp)
    14d6:	4d 8d 74 00 04       	lea    0x4(%r8,%rax,1),%r14
    14db:	74 c6                	je     14a3 <main+0x5d3>
    14dd:	eb a6                	jmp    1485 <main+0x5b5>
    14df:	90                   	nop
    14e0:	48 c7 44 24 10 04 00 	movq   $0x4,0x10(%rsp)
    14e7:	00 00 
    14e9:	e9 4b ff ff ff       	jmpq   1439 <main+0x569>
    14ee:	48 c7 44 24 10 fc ff 	movq   $0xfffffffffffffffc,0x10(%rsp)
    14f5:	ff ff 
    14f7:	e9 3d ff ff ff       	jmpq   1439 <main+0x569>
    14fc:	48 c1 e0 03          	shl    $0x3,%rax
    1500:	48 89 44 24 10       	mov    %rax,0x10(%rsp)
    1505:	e9 2f ff ff ff       	jmpq   1439 <main+0x569>
    150a:	48 89 c3             	mov    %rax,%rbx
    150d:	eb 05                	jmp    1514 <main+0x644>
    150f:	48 89 c3             	mov    %rax,%rbx
    1512:	eb 1d                	jmp    1531 <main+0x661>
    1514:	48 83 7c 24 20 00    	cmpq   $0x0,0x20(%rsp)
    151a:	74 2a                	je     1546 <main+0x676>
    151c:	48 8b 7c 24 20       	mov    0x20(%rsp),%rdi
    1521:	c5 f8 77             	vzeroupper 
    1524:	e8 87 f8 ff ff       	callq  db0 <_ZdlPv@plt>
    1529:	48 89 df             	mov    %rbx,%rdi
    152c:	e8 3f f9 ff ff       	callq  e70 <_Unwind_Resume@plt>
    1531:	48 8b 7c 24 18       	mov    0x18(%rsp),%rdi
    1536:	c5 f8 77             	vzeroupper 
    1539:	e8 62 f8 ff ff       	callq  da0 <_ZNSt13random_device7_M_finiEv@plt>
    153e:	48 89 df             	mov    %rbx,%rdi
    1541:	e8 2a f9 ff ff       	callq  e70 <_Unwind_Resume@plt>
    1546:	c5 f8 77             	vzeroupper 
    1549:	eb de                	jmp    1529 <main+0x659>
    154b:	49 89 c4             	mov    %rax,%r12
    154e:	eb 05                	jmp    1555 <main+0x685>
    1550:	48 89 c3             	mov    %rax,%rbx
    1553:	eb 1e                	jmp    1573 <main+0x6a3>
    1555:	48 8b 7c 24 30       	mov    0x30(%rsp),%rdi
    155a:	48 83 c3 10          	add    $0x10,%rbx
    155e:	48 39 df             	cmp    %rbx,%rdi
    1561:	74 1f                	je     1582 <main+0x6b2>
    1563:	c5 f8 77             	vzeroupper 
    1566:	e8 45 f8 ff ff       	callq  db0 <_ZdlPv@plt>
    156b:	4c 89 e7             	mov    %r12,%rdi
    156e:	e8 fd f8 ff ff       	callq  e70 <_Unwind_Resume@plt>
    1573:	48 8b 7c 24 18       	mov    0x18(%rsp),%rdi
    1578:	c5 f8 77             	vzeroupper 
    157b:	e8 a0 f8 ff ff       	callq  e20 <_ZNSt14basic_ofstreamIcSt11char_traitsIcEED1Ev@plt>
    1580:	eb a7                	jmp    1529 <main+0x659>
    1582:	c5 f8 77             	vzeroupper 
    1585:	eb e4                	jmp    156b <main+0x69b>
    1587:	66 0f 1f 84 00 00 00 	nopw   0x0(%rax,%rax,1)
    158e:	00 00 

0000000000001590 <set_fast_math>:
    1590:	0f ae 5c 24 fc       	stmxcsr -0x4(%rsp)
    1595:	81 4c 24 fc 40 80 00 	orl    $0x8040,-0x4(%rsp)
    159c:	00 
    159d:	0f ae 54 24 fc       	ldmxcsr -0x4(%rsp)
    15a2:	c3                   	retq   
    15a3:	66 2e 0f 1f 84 00 00 	nopw   %cs:0x0(%rax,%rax,1)
    15aa:	00 00 00 
    15ad:	0f 1f 00             	nopl   (%rax)

00000000000015b0 <_start>:
    15b0:	31 ed                	xor    %ebp,%ebp
    15b2:	49 89 d1             	mov    %rdx,%r9
    15b5:	5e                   	pop    %rsi
    15b6:	48 89 e2             	mov    %rsp,%rdx
    15b9:	48 83 e4 f0          	and    $0xfffffffffffffff0,%rsp
    15bd:	50                   	push   %rax
    15be:	54                   	push   %rsp
    15bf:	4c 8d 05 fa 02 00 00 	lea    0x2fa(%rip),%r8        # 18c0 <__libc_csu_fini>
    15c6:	48 8d 0d 83 02 00 00 	lea    0x283(%rip),%rcx        # 1850 <__libc_csu_init>
    15cd:	48 8d 3d fc f8 ff ff 	lea    -0x704(%rip),%rdi        # ed0 <main>
    15d4:	ff 15 06 0a 20 00    	callq  *0x200a06(%rip)        # 201fe0 <__libc_start_main@GLIBC_2.2.5>
    15da:	f4                   	hlt    
    15db:	0f 1f 44 00 00       	nopl   0x0(%rax,%rax,1)

00000000000015e0 <deregister_tm_clones>:
    15e0:	48 8d 3d e9 0a 20 00 	lea    0x200ae9(%rip),%rdi        # 2020d0 <__TMC_END__>
    15e7:	48 8d 05 e2 0a 20 00 	lea    0x200ae2(%rip),%rax        # 2020d0 <__TMC_END__>
    15ee:	48 39 f8             	cmp    %rdi,%rax
    15f1:	74 15                	je     1608 <deregister_tm_clones+0x28>
    15f3:	48 8b 05 de 09 20 00 	mov    0x2009de(%rip),%rax        # 201fd8 <_ITM_deregisterTMCloneTable>
    15fa:	48 85 c0             	test   %rax,%rax
    15fd:	74 09                	je     1608 <deregister_tm_clones+0x28>
    15ff:	ff e0                	jmpq   *%rax
    1601:	0f 1f 80 00 00 00 00 	nopl   0x0(%rax)
    1608:	c3                   	retq   
    1609:	0f 1f 80 00 00 00 00 	nopl   0x0(%rax)

0000000000001610 <register_tm_clones>:
    1610:	48 8d 3d b9 0a 20 00 	lea    0x200ab9(%rip),%rdi        # 2020d0 <__TMC_END__>
    1617:	48 8d 35 b2 0a 20 00 	lea    0x200ab2(%rip),%rsi        # 2020d0 <__TMC_END__>
    161e:	48 29 fe             	sub    %rdi,%rsi
    1621:	48 c1 fe 03          	sar    $0x3,%rsi
    1625:	48 89 f0             	mov    %rsi,%rax
    1628:	48 c1 e8 3f          	shr    $0x3f,%rax
    162c:	48 01 c6             	add    %rax,%rsi
    162f:	48 d1 fe             	sar    %rsi
    1632:	74 14                	je     1648 <register_tm_clones+0x38>
    1634:	48 8b 05 b5 09 20 00 	mov    0x2009b5(%rip),%rax        # 201ff0 <_ITM_registerTMCloneTable>
    163b:	48 85 c0             	test   %rax,%rax
    163e:	74 08                	je     1648 <register_tm_clones+0x38>
    1640:	ff e0                	jmpq   *%rax
    1642:	66 0f 1f 44 00 00    	nopw   0x0(%rax,%rax,1)
    1648:	c3                   	retq   
    1649:	0f 1f 80 00 00 00 00 	nopl   0x0(%rax)

0000000000001650 <__do_global_dtors_aux>:
    1650:	80 3d c1 0c 20 00 00 	cmpb   $0x0,0x200cc1(%rip)        # 202318 <completed.7389>
    1657:	75 2f                	jne    1688 <__do_global_dtors_aux+0x38>
    1659:	55                   	push   %rbp
    165a:	48 83 3d 6e 09 20 00 	cmpq   $0x0,0x20096e(%rip)        # 201fd0 <__cxa_finalize@GLIBC_2.2.5>
    1661:	00 
    1662:	48 89 e5             	mov    %rsp,%rbp
    1665:	74 0c                	je     1673 <__do_global_dtors_aux+0x23>
    1667:	48 8b 3d 52 0a 20 00 	mov    0x200a52(%rip),%rdi        # 2020c0 <__dso_handle>
    166e:	e8 0d f8 ff ff       	callq  e80 <__cxa_finalize@plt>
    1673:	e8 68 ff ff ff       	callq  15e0 <deregister_tm_clones>
    1678:	c6 05 99 0c 20 00 01 	movb   $0x1,0x200c99(%rip)        # 202318 <completed.7389>
    167f:	5d                   	pop    %rbp
    1680:	c3                   	retq   
    1681:	0f 1f 80 00 00 00 00 	nopl   0x0(%rax)
    1688:	c3                   	retq   
    1689:	0f 1f 80 00 00 00 00 	nopl   0x0(%rax)

0000000000001690 <frame_dummy>:
    1690:	e9 7b ff ff ff       	jmpq   1610 <register_tm_clones>
    1695:	66 2e 0f 1f 84 00 00 	nopw   %cs:0x0(%rax,%rax,1)
    169c:	00 00 00 
    169f:	90                   	nop

00000000000016a0 <_ZNSt24uniform_int_distributionIiEclISt26linear_congruential_engineImLm16807ELm0ELm2147483647EEEEiRT_RKNS0_10param_typeE.constprop.4>:
    16a0:	41 57                	push   %r15
    16a2:	49 89 f7             	mov    %rsi,%r15
    16a5:	41 56                	push   %r14
    16a7:	41 55                	push   %r13
    16a9:	41 54                	push   %r12
    16ab:	55                   	push   %rbp
    16ac:	53                   	push   %rbx
    16ad:	48 83 ec 18          	sub    $0x18,%rsp
    16b1:	4c 63 6e 04          	movslq 0x4(%rsi),%r13
    16b5:	49 81 fd fc ff ff 7f 	cmp    $0x7ffffffc,%r13
    16bc:	0f 87 8e 00 00 00    	ja     1750 <_ZNSt24uniform_int_distributionIiEclISt26linear_congruential_engineImLm16807ELm0ELm2147483647EEEEiRT_RKNS0_10param_typeE.constprop.4+0xb0>
    16c2:	4d 8d 45 01          	lea    0x1(%r13),%r8
    16c6:	b8 fd ff ff 7f       	mov    $0x7ffffffd,%eax
    16cb:	31 d2                	xor    %edx,%edx
    16cd:	48 8b 0d 54 0c 20 00 	mov    0x200c54(%rip),%rcx        # 202328 <_ZL9generator>
    16d4:	49 f7 f0             	div    %r8
    16d7:	49 ba 05 00 00 00 02 	movabs $0x200000005,%r10
    16de:	00 00 00 
    16e1:	4c 0f af c0          	imul   %rax,%r8
    16e5:	49 89 c1             	mov    %rax,%r9
    16e8:	0f 1f 84 00 00 00 00 	nopl   0x0(%rax,%rax,1)
    16ef:	00 
    16f0:	48 69 f9 a7 41 00 00 	imul   $0x41a7,%rcx,%rdi
    16f7:	48 89 f8             	mov    %rdi,%rax
    16fa:	48 89 f9             	mov    %rdi,%rcx
    16fd:	49 f7 e2             	mul    %r10
    1700:	48 29 d1             	sub    %rdx,%rcx
    1703:	48 d1 e9             	shr    %rcx
    1706:	48 01 ca             	add    %rcx,%rdx
    1709:	48 c1 ea 1e          	shr    $0x1e,%rdx
    170d:	48 89 d6             	mov    %rdx,%rsi
    1710:	48 c1 e6 1f          	shl    $0x1f,%rsi
    1714:	48 29 d6             	sub    %rdx,%rsi
    1717:	48 29 f7             	sub    %rsi,%rdi
    171a:	48 8d 47 ff          	lea    -0x1(%rdi),%rax
    171e:	48 89 f9             	mov    %rdi,%rcx
    1721:	49 39 c0             	cmp    %rax,%r8
    1724:	76 ca                	jbe    16f0 <_ZNSt24uniform_int_distributionIiEclISt26linear_congruential_engineImLm16807ELm0ELm2147483647EEEEiRT_RKNS0_10param_typeE.constprop.4+0x50>
    1726:	31 d2                	xor    %edx,%edx
    1728:	48 89 3d f9 0b 20 00 	mov    %rdi,0x200bf9(%rip)        # 202328 <_ZL9generator>
    172f:	49 f7 f1             	div    %r9
    1732:	41 03 07             	add    (%r15),%eax
    1735:	48 83 c4 18          	add    $0x18,%rsp
    1739:	5b                   	pop    %rbx
    173a:	5d                   	pop    %rbp
    173b:	41 5c                	pop    %r12
    173d:	41 5d                	pop    %r13
    173f:	41 5e                	pop    %r14
    1741:	41 5f                	pop    %r15
    1743:	c3                   	retq   
    1744:	66 90                	xchg   %ax,%ax
    1746:	66 2e 0f 1f 84 00 00 	nopw   %cs:0x0(%rax,%rax,1)
    174d:	00 00 00 
    1750:	49 81 fd fd ff ff 7f 	cmp    $0x7ffffffd,%r13
    1757:	0f 84 a3 00 00 00    	je     1800 <_ZNSt24uniform_int_distributionIiEclISt26linear_congruential_engineImLm16807ELm0ELm2147483647EEEEiRT_RKNS0_10param_typeE.constprop.4+0x160>
    175d:	4c 89 ea             	mov    %r13,%rdx
    1760:	49 89 fc             	mov    %rdi,%r12
    1763:	48 bb 09 00 00 00 02 	movabs $0x8000000200000009,%rbx
    176a:	00 00 80 
    176d:	48 d1 ea             	shr    %rdx
    1770:	4c 8d 74 24 08       	lea    0x8(%rsp),%r14
    1775:	48 8d 2d ac 0b 20 00 	lea    0x200bac(%rip),%rbp        # 202328 <_ZL9generator>
    177c:	48 89 d0             	mov    %rdx,%rax
    177f:	48 f7 e3             	mul    %rbx
    1782:	48 89 d3             	mov    %rdx,%rbx
    1785:	48 c1 eb 1d          	shr    $0x1d,%rbx
    1789:	4c 89 f6             	mov    %r14,%rsi
    178c:	4c 89 e7             	mov    %r12,%rdi
    178f:	c7 44 24 08 00 00 00 	movl   $0x0,0x8(%rsp)
    1796:	00 
    1797:	89 5c 24 0c          	mov    %ebx,0xc(%rsp)
    179b:	e8 00 ff ff ff       	callq  16a0 <_ZNSt24uniform_int_distributionIiEclISt26linear_congruential_engineImLm16807ELm0ELm2147483647EEEEiRT_RKNS0_10param_typeE.constprop.4>
    17a0:	48 69 7d 00 a7 41 00 	imul   $0x41a7,0x0(%rbp),%rdi
    17a7:	00 
    17a8:	89 c6                	mov    %eax,%esi
    17aa:	48 b8 05 00 00 00 02 	movabs $0x200000005,%rax
    17b1:	00 00 00 
    17b4:	48 f7 e7             	mul    %rdi
    17b7:	48 89 f8             	mov    %rdi,%rax
    17ba:	48 29 d0             	sub    %rdx,%rax
    17bd:	48 d1 e8             	shr    %rax
    17c0:	48 01 c2             	add    %rax,%rdx
    17c3:	48 c1 ea 1e          	shr    $0x1e,%rdx
    17c7:	48 89 d0             	mov    %rdx,%rax
    17ca:	48 c1 e0 1f          	shl    $0x1f,%rax
    17ce:	48 29 d0             	sub    %rdx,%rax
    17d1:	48 29 c7             	sub    %rax,%rdi
    17d4:	48 63 c6             	movslq %esi,%rax
    17d7:	48 69 c0 fe ff ff 7f 	imul   $0x7ffffffe,%rax,%rax
    17de:	48 89 fa             	mov    %rdi,%rdx
    17e1:	48 89 7d 00          	mov    %rdi,0x0(%rbp)
    17e5:	48 ff ca             	dec    %rdx
    17e8:	48 01 d0             	add    %rdx,%rax
    17eb:	0f 92 c2             	setb   %dl
    17ee:	0f b6 d2             	movzbl %dl,%edx
    17f1:	49 39 c5             	cmp    %rax,%r13
    17f4:	72 93                	jb     1789 <_ZNSt24uniform_int_distributionIiEclISt26linear_congruential_engineImLm16807ELm0ELm2147483647EEEEiRT_RKNS0_10param_typeE.constprop.4+0xe9>
    17f6:	48 85 d2             	test   %rdx,%rdx
    17f9:	75 8e                	jne    1789 <_ZNSt24uniform_int_distributionIiEclISt26linear_congruential_engineImLm16807ELm0ELm2147483647EEEEiRT_RKNS0_10param_typeE.constprop.4+0xe9>
    17fb:	e9 32 ff ff ff       	jmpq   1732 <_ZNSt24uniform_int_distributionIiEclISt26linear_congruential_engineImLm16807ELm0ELm2147483647EEEEiRT_RKNS0_10param_typeE.constprop.4+0x92>
    1800:	48 69 0d 1d 0b 20 00 	imul   $0x41a7,0x200b1d(%rip),%rcx        # 202328 <_ZL9generator>
    1807:	a7 41 00 00 
    180b:	48 ba 05 00 00 00 02 	movabs $0x200000005,%rdx
    1812:	00 00 00 
    1815:	48 89 c8             	mov    %rcx,%rax
    1818:	48 f7 e2             	mul    %rdx
    181b:	48 89 c8             	mov    %rcx,%rax
    181e:	48 29 d0             	sub    %rdx,%rax
    1821:	48 d1 e8             	shr    %rax
    1824:	48 01 d0             	add    %rdx,%rax
    1827:	48 c1 e8 1e          	shr    $0x1e,%rax
    182b:	48 89 c2             	mov    %rax,%rdx
    182e:	48 c1 e2 1f          	shl    $0x1f,%rdx
    1832:	48 29 c2             	sub    %rax,%rdx
    1835:	48 29 d1             	sub    %rdx,%rcx
    1838:	48 89 c8             	mov    %rcx,%rax
    183b:	48 89 0d e6 0a 20 00 	mov    %rcx,0x200ae6(%rip)        # 202328 <_ZL9generator>
    1842:	48 ff c8             	dec    %rax
    1845:	e9 e8 fe ff ff       	jmpq   1732 <_ZNSt24uniform_int_distributionIiEclISt26linear_congruential_engineImLm16807ELm0ELm2147483647EEEEiRT_RKNS0_10param_typeE.constprop.4+0x92>
    184a:	66 0f 1f 44 00 00    	nopw   0x0(%rax,%rax,1)

0000000000001850 <__libc_csu_init>:
    1850:	41 57                	push   %r15
    1852:	41 56                	push   %r14
    1854:	49 89 d7             	mov    %rdx,%r15
    1857:	41 55                	push   %r13
    1859:	41 54                	push   %r12
    185b:	4c 8d 25 3e 05 20 00 	lea    0x20053e(%rip),%r12        # 201da0 <__frame_dummy_init_array_entry>
    1862:	55                   	push   %rbp
    1863:	48 8d 2d 4e 05 20 00 	lea    0x20054e(%rip),%rbp        # 201db8 <__init_array_end>
    186a:	53                   	push   %rbx
    186b:	41 89 fd             	mov    %edi,%r13d
    186e:	49 89 f6             	mov    %rsi,%r14
    1871:	4c 29 e5             	sub    %r12,%rbp
    1874:	48 83 ec 08          	sub    $0x8,%rsp
    1878:	48 c1 fd 03          	sar    $0x3,%rbp
    187c:	e8 97 f4 ff ff       	callq  d18 <_init>
    1881:	48 85 ed             	test   %rbp,%rbp
    1884:	74 20                	je     18a6 <__libc_csu_init+0x56>
    1886:	31 db                	xor    %ebx,%ebx
    1888:	0f 1f 84 00 00 00 00 	nopl   0x0(%rax,%rax,1)
    188f:	00 
    1890:	4c 89 fa             	mov    %r15,%rdx
    1893:	4c 89 f6             	mov    %r14,%rsi
    1896:	44 89 ef             	mov    %r13d,%edi
    1899:	41 ff 14 dc          	callq  *(%r12,%rbx,8)
    189d:	48 83 c3 01          	add    $0x1,%rbx
    18a1:	48 39 dd             	cmp    %rbx,%rbp
    18a4:	75 ea                	jne    1890 <__libc_csu_init+0x40>
    18a6:	48 83 c4 08          	add    $0x8,%rsp
    18aa:	5b                   	pop    %rbx
    18ab:	5d                   	pop    %rbp
    18ac:	41 5c                	pop    %r12
    18ae:	41 5d                	pop    %r13
    18b0:	41 5e                	pop    %r14
    18b2:	41 5f                	pop    %r15
    18b4:	c3                   	retq   
    18b5:	90                   	nop
    18b6:	66 2e 0f 1f 84 00 00 	nopw   %cs:0x0(%rax,%rax,1)
    18bd:	00 00 00 

00000000000018c0 <__libc_csu_fini>:
    18c0:	f3 c3                	repz retq 

Disassembly of section .fini:

00000000000018c4 <_fini>:
    18c4:	48 83 ec 08          	sub    $0x8,%rsp
    18c8:	48 83 c4 08          	add    $0x8,%rsp
    18cc:	c3                   	retq   
